target datalayout = "e-m:e-p270:32:32-p271:32:32-p272:64:64-i64:64-i128:128-f80:128-n8:16:32:64-S128"
target triple = "x86_64-unknown-linux-gnu"

; Function Attrs: mustprogress nounwind uwtable
define internal noundef i32 @_ZL18intersectRectQuad2PfS_S_(ptr noundef %h, ptr noundef %p, ptr noundef %ret) #1 {
entry:
  %h.addr = alloca ptr, align 8
  %p.addr = alloca ptr, align 8
  %ret.addr = alloca ptr, align 8
  %nq = alloca i32, align 4
  %nr = alloca i32, align 4
  %buffer = alloca [16 x float], align 16
  %q = alloca ptr, align 8
  %r = alloca ptr, align 8
  %dir = alloca i32, align 4
  %sign = alloca i32, align 4
  %pq = alloca ptr, align 8
  %pr = alloca ptr, align 8
  %i = alloca i32, align 4
  %nextq = alloca ptr, align 8
  store ptr %h, ptr %h.addr, align 8
  store ptr %p, ptr %p.addr, align 8
  store ptr %ret, ptr %ret.addr, align 8
  store i32 4, ptr %nq, align 4
  store i32 0, ptr %nr, align 4
  %0 = load ptr, ptr %p.addr, align 8
  store ptr %0, ptr %q, align 8
  %1 = load ptr, ptr %ret.addr, align 8
  store ptr %1, ptr %r, align 8
  store i32 0, ptr %dir, align 4
  br label %for.cond

for.cond:                                         ; preds = %for.inc81, %entry
  %2 = load i32, ptr %dir, align 4
  %cmp = icmp sle i32 %2, 1
  br i1 %cmp, label %for.body, label %for.end83

for.body:                                         ; preds = %for.cond
  store i32 -1, ptr %sign, align 4
  br label %for.cond1

for.cond1:                                        ; preds = %for.inc79, %for.body
  %3 = load i32, ptr %sign, align 4
  %cmp2 = icmp sle i32 %3, 1
  br i1 %cmp2, label %for.body3, label %for.end80

for.body3:                                        ; preds = %for.cond1
  %4 = load ptr, ptr %q, align 8
  store ptr %4, ptr %pq, align 8
  %5 = load ptr, ptr %r, align 8
  store ptr %5, ptr %pr, align 8
  store i32 0, ptr %nr, align 4
  %6 = load i32, ptr %nq, align 4
  store i32 %6, ptr %i, align 4
  br label %for.cond4

for.cond4:                                        ; preds = %for.inc, %for.body3
  %7 = load i32, ptr %i, align 4
  %cmp5 = icmp sgt i32 %7, 0
  br i1 %cmp5, label %for.body6, label %for.end

for.body6:                                        ; preds = %for.cond4
  %8 = load i32, ptr %sign, align 4
  %conv = sitofp i32 %8 to float
  %9 = load ptr, ptr %pq, align 8
  %10 = load i32, ptr %dir, align 4
  %idxprom = sext i32 %10 to i64
  %arrayidx = getelementptr inbounds float, ptr %9, i64 %idxprom
  %11 = load float, ptr %arrayidx, align 4
  %mul = fmul float %conv, %11
  %12 = load ptr, ptr %h.addr, align 8
  %13 = load i32, ptr %dir, align 4
  %idxprom7 = sext i32 %13 to i64
  %arrayidx8 = getelementptr inbounds float, ptr %12, i64 %idxprom7
  %14 = load float, ptr %arrayidx8, align 4
  %cmp9 = fcmp olt float %mul, %14
  br i1 %cmp9, label %if.then, label %if.end15

if.then:                                          ; preds = %for.body6
  %15 = load ptr, ptr %pq, align 8
  %arrayidx10 = getelementptr inbounds float, ptr %15, i64 0
  %16 = load float, ptr %arrayidx10, align 4
  %17 = load ptr, ptr %pr, align 8
  %arrayidx11 = getelementptr inbounds float, ptr %17, i64 0
  store float %16, ptr %arrayidx11, align 4
  %18 = load ptr, ptr %pq, align 8
  %arrayidx12 = getelementptr inbounds float, ptr %18, i64 1
  %19 = load float, ptr %arrayidx12, align 4
  %20 = load ptr, ptr %pr, align 8
  %arrayidx13 = getelementptr inbounds float, ptr %20, i64 1
  store float %19, ptr %arrayidx13, align 4
  %21 = load ptr, ptr %pr, align 8
  %add.ptr = getelementptr inbounds float, ptr %21, i64 2
  store ptr %add.ptr, ptr %pr, align 8
  %22 = load i32, ptr %nr, align 4
  %inc = add nsw i32 %22, 1
  store i32 %inc, ptr %nr, align 4
  %23 = load i32, ptr %nr, align 4
  %and = and i32 %23, 8
  %tobool = icmp ne i32 %and, 0
  br i1 %tobool, label %if.then14, label %if.end

if.then14:                                        ; preds = %if.then
  %24 = load ptr, ptr %r, align 8
  store ptr %24, ptr %q, align 8
  br label %done

if.end:                                           ; preds = %if.then
  br label %if.end15

if.end15:                                         ; preds = %if.end, %for.body6
  %25 = load i32, ptr %i, align 4
  %cmp16 = icmp sgt i32 %25, 1
  br i1 %cmp16, label %cond.true, label %cond.false

cond.true:                                        ; preds = %if.end15
  %26 = load ptr, ptr %pq, align 8
  %add.ptr17 = getelementptr inbounds float, ptr %26, i64 2
  br label %cond.end

cond.false:                                       ; preds = %if.end15
  %27 = load ptr, ptr %q, align 8
  br label %cond.end

cond.end:                                         ; preds = %cond.false, %cond.true
  %cond = phi ptr [ %add.ptr17, %cond.true ], [ %27, %cond.false ]
  store ptr %cond, ptr %nextq, align 8
  %28 = load i32, ptr %sign, align 4
  %conv18 = sitofp i32 %28 to float
  %29 = load ptr, ptr %pq, align 8
  %30 = load i32, ptr %dir, align 4
  %idxprom19 = sext i32 %30 to i64
  %arrayidx20 = getelementptr inbounds float, ptr %29, i64 %idxprom19
  %31 = load float, ptr %arrayidx20, align 4
  %mul21 = fmul float %conv18, %31
  %32 = load ptr, ptr %h.addr, align 8
  %33 = load i32, ptr %dir, align 4
  %idxprom22 = sext i32 %33 to i64
  %arrayidx23 = getelementptr inbounds float, ptr %32, i64 %idxprom22
  %34 = load float, ptr %arrayidx23, align 4
  %cmp24 = fcmp olt float %mul21, %34
  %conv25 = zext i1 %cmp24 to i32
  %35 = load i32, ptr %sign, align 4
  %conv26 = sitofp i32 %35 to float
  %36 = load ptr, ptr %nextq, align 8
  %37 = load i32, ptr %dir, align 4
  %idxprom27 = sext i32 %37 to i64
  %arrayidx28 = getelementptr inbounds float, ptr %36, i64 %idxprom27
  %38 = load float, ptr %arrayidx28, align 4
  %mul29 = fmul float %conv26, %38
  %39 = load ptr, ptr %h.addr, align 8
  %40 = load i32, ptr %dir, align 4
  %idxprom30 = sext i32 %40 to i64
  %arrayidx31 = getelementptr inbounds float, ptr %39, i64 %idxprom30
  %41 = load float, ptr %arrayidx31, align 4
  %cmp32 = fcmp olt float %mul29, %41
  %conv33 = zext i1 %cmp32 to i32
  %xor = xor i32 %conv25, %conv33
  %tobool34 = icmp ne i32 %xor, 0
  br i1 %tobool34, label %if.then35, label %if.end72

if.then35:                                        ; preds = %cond.end
  %42 = load ptr, ptr %pq, align 8
  %43 = load i32, ptr %dir, align 4
  %sub = sub nsw i32 1, %43
  %idxprom36 = sext i32 %sub to i64
  %arrayidx37 = getelementptr inbounds float, ptr %42, i64 %idxprom36
  %44 = load float, ptr %arrayidx37, align 4
  %45 = load ptr, ptr %nextq, align 8
  %46 = load i32, ptr %dir, align 4
  %sub38 = sub nsw i32 1, %46
  %idxprom39 = sext i32 %sub38 to i64
  %arrayidx40 = getelementptr inbounds float, ptr %45, i64 %idxprom39
  %47 = load float, ptr %arrayidx40, align 4
  %48 = load ptr, ptr %pq, align 8
  %49 = load i32, ptr %dir, align 4
  %sub41 = sub nsw i32 1, %49
  %idxprom42 = sext i32 %sub41 to i64
  %arrayidx43 = getelementptr inbounds float, ptr %48, i64 %idxprom42
  %50 = load float, ptr %arrayidx43, align 4
  %sub44 = fsub float %47, %50
  %51 = load ptr, ptr %nextq, align 8
  %52 = load i32, ptr %dir, align 4
  %idxprom45 = sext i32 %52 to i64
  %arrayidx46 = getelementptr inbounds float, ptr %51, i64 %idxprom45
  %53 = load float, ptr %arrayidx46, align 4
  %54 = load ptr, ptr %pq, align 8
  %55 = load i32, ptr %dir, align 4
  %idxprom47 = sext i32 %55 to i64
  %arrayidx48 = getelementptr inbounds float, ptr %54, i64 %idxprom47
  %56 = load float, ptr %arrayidx48, align 4
  %sub49 = fsub float %53, %56
  %div = fdiv float %sub44, %sub49
  %57 = load i32, ptr %sign, align 4
  %conv50 = sitofp i32 %57 to float
  %58 = load ptr, ptr %h.addr, align 8
  %59 = load i32, ptr %dir, align 4
  %idxprom51 = sext i32 %59 to i64
  %arrayidx52 = getelementptr inbounds float, ptr %58, i64 %idxprom51
  %60 = load float, ptr %arrayidx52, align 4
  %61 = load ptr, ptr %pq, align 8
  %62 = load i32, ptr %dir, align 4
  %idxprom54 = sext i32 %62 to i64
  %arrayidx55 = getelementptr inbounds float, ptr %61, i64 %idxprom54
  %63 = load float, ptr %arrayidx55, align 4
  %neg = fneg float %63
  %64 = call float @llvm.fmuladd.f32(float %conv50, float %60, float %neg)
  %65 = call float @llvm.fmuladd.f32(float %div, float %64, float %44)
  %66 = load ptr, ptr %pr, align 8
  %67 = load i32, ptr %dir, align 4
  %sub57 = sub nsw i32 1, %67
  %idxprom58 = sext i32 %sub57 to i64
  %arrayidx59 = getelementptr inbounds float, ptr %66, i64 %idxprom58
  store float %65, ptr %arrayidx59, align 4
  %68 = load i32, ptr %sign, align 4
  %conv60 = sitofp i32 %68 to float
  %69 = load ptr, ptr %h.addr, align 8
  %70 = load i32, ptr %dir, align 4
  %idxprom61 = sext i32 %70 to i64
  %arrayidx62 = getelementptr inbounds float, ptr %69, i64 %idxprom61
  %71 = load float, ptr %arrayidx62, align 4
  %mul63 = fmul float %conv60, %71
  %72 = load ptr, ptr %pr, align 8
  %73 = load i32, ptr %dir, align 4
  %idxprom64 = sext i32 %73 to i64
  %arrayidx65 = getelementptr inbounds float, ptr %72, i64 %idxprom64
  store float %mul63, ptr %arrayidx65, align 4
  %74 = load ptr, ptr %pr, align 8
  %add.ptr66 = getelementptr inbounds float, ptr %74, i64 2
  store ptr %add.ptr66, ptr %pr, align 8
  %75 = load i32, ptr %nr, align 4
  %inc67 = add nsw i32 %75, 1
  store i32 %inc67, ptr %nr, align 4
  %76 = load i32, ptr %nr, align 4
  %and68 = and i32 %76, 8
  %tobool69 = icmp ne i32 %and68, 0
  br i1 %tobool69, label %if.then70, label %if.end71

if.then70:                                        ; preds = %if.then35
  %77 = load ptr, ptr %r, align 8
  store ptr %77, ptr %q, align 8
  br label %done

if.end71:                                         ; preds = %if.then35
  br label %if.end72

if.end72:                                         ; preds = %if.end71, %cond.end
  %78 = load ptr, ptr %pq, align 8
  %add.ptr73 = getelementptr inbounds float, ptr %78, i64 2
  store ptr %add.ptr73, ptr %pq, align 8
  br label %for.inc

for.inc:                                          ; preds = %if.end72
  %79 = load i32, ptr %i, align 4
  %dec = add nsw i32 %79, -1
  store i32 %dec, ptr %i, align 4
  br label %for.cond4, !llvm.loop !32

for.end:                                          ; preds = %for.cond4
  %80 = load ptr, ptr %r, align 8
  store ptr %80, ptr %q, align 8
  %81 = load ptr, ptr %q, align 8
  %82 = load ptr, ptr %ret.addr, align 8
  %cmp74 = icmp eq ptr %81, %82
  br i1 %cmp74, label %cond.true75, label %cond.false76

cond.true75:                                      ; preds = %for.end
  %arraydecay = getelementptr inbounds [16 x float], ptr %buffer, i64 0, i64 0
  br label %cond.end77

cond.false76:                                     ; preds = %for.end
  %83 = load ptr, ptr %ret.addr, align 8
  br label %cond.end77

cond.end77:                                       ; preds = %cond.false76, %cond.true75
  %cond78 = phi ptr [ %arraydecay, %cond.true75 ], [ %83, %cond.false76 ]
  store ptr %cond78, ptr %r, align 8
  %84 = load i32, ptr %nr, align 4
  store i32 %84, ptr %nq, align 4
  br label %for.inc79

for.inc79:                                        ; preds = %cond.end77
  %85 = load i32, ptr %sign, align 4
  %add = add nsw i32 %85, 2
  store i32 %add, ptr %sign, align 4
  br label %for.cond1, !llvm.loop !33

for.end80:                                        ; preds = %for.cond1
  br label %for.inc81

for.inc81:                                        ; preds = %for.end80
  %86 = load i32, ptr %dir, align 4
  %inc82 = add nsw i32 %86, 1
  store i32 %inc82, ptr %dir, align 4
  br label %for.cond, !llvm.loop !34

for.end83:                                        ; preds = %for.cond
  br label %done

done:                                             ; preds = %for.end83, %if.then70, %if.then14
  %87 = load ptr, ptr %q, align 8
  %88 = load ptr, ptr %ret.addr, align 8
  %cmp84 = icmp ne ptr %87, %88
  br i1 %cmp84, label %if.then85, label %if.end89

if.then85:                                        ; preds = %done
  %89 = load ptr, ptr %ret.addr, align 8
  %90 = load ptr, ptr %q, align 8
  %91 = load i32, ptr %nr, align 4
  %mul86 = mul nsw i32 %91, 2
  %conv87 = sext i32 %mul86 to i64
  %mul88 = mul i64 %conv87, 4
  call void @llvm.memcpy.p0.p0.i64(ptr align 4 %89, ptr align 4 %90, i64 %mul88, i1 false)
  br label %if.end89

if.end89:                                         ; preds = %if.then85, %done
  %92 = load i32, ptr %nr, align 4
  ret i32 %92
}