; Function Attrs: mustprogress nofree norecurse nosync nounwind memory(readwrite, inaccessiblemem: none) uwtable
define internal fastcc noundef i32 @_ZL18intersectRectQuad2PfS_S_(ptr nocapture noundef readonly %h, ptr nocapture noundef readonly %p, ptr noundef %ret) unnamed_addr #6 {
entry:
  %buffer = alloca [16 x float], align 16
  br label %for.cond1.preheader

for.cond1.preheader:                              ; preds = %entry, %for.inc81
  %cmp = phi i1 [ true, %entry ], [ false, %for.inc81 ]
  %indvars.iv = phi i64 [ 0, %entry ], [ 1, %for.inc81 ]
  %nq.084 = phi i32 [ 4, %entry ], [ %nr.2.lcssa, %for.inc81 ]
  %r.082 = phi ptr [ %ret, %entry ], [ %cond78, %for.inc81 ]
  %q.081 = phi ptr [ %p, %entry ], [ %r.178, %for.inc81 ]
  %arrayidx8 = getelementptr inbounds float, ptr %h, i64 %indvars.iv
  %idxprom36 = xor i64 %indvars.iv, 1
  br label %for.cond4.preheader

for.cond4.preheader:                              ; preds = %for.cond1.preheader, %for.end
  %nq.180 = phi i32 [ %nq.084, %for.cond1.preheader ], [ %nr.2.lcssa, %for.end ]
  %sign.079 = phi i32 [ -1, %for.cond1.preheader ], [ %add, %for.end ]
  %r.178 = phi ptr [ %r.082, %for.cond1.preheader ], [ %cond78, %for.end ]
  %q.177 = phi ptr [ %q.081, %for.cond1.preheader ], [ %r.178, %for.end ]
  %cmp572 = icmp sgt i32 %nq.180, 0
  br i1 %cmp572, label %for.body6.lr.ph, label %for.end

for.body6.lr.ph:                                  ; preds = %for.cond4.preheader
  %conv = sitofp i32 %sign.079 to float
  br label %for.body6

for.body6:                                        ; preds = %for.body6.lr.ph, %if.end72
  %i.076 = phi i32 [ %nq.180, %for.body6.lr.ph ], [ %dec, %if.end72 ]
  %pr.075 = phi ptr [ %r.178, %for.body6.lr.ph ], [ %pr.2, %if.end72 ]
  %pq.074 = phi ptr [ %q.177, %for.body6.lr.ph ], [ %add.ptr17, %if.end72 ]
  %nr.273 = phi i32 [ 0, %for.body6.lr.ph ], [ %nr.4, %if.end72 ]
  %arrayidx = getelementptr inbounds float, ptr %pq.074, i64 %indvars.iv
  %0 = load float, ptr %arrayidx, align 4
  %mul = fmul float %0, %conv
  %1 = load float, ptr %arrayidx8, align 4
  %cmp9 = fcmp olt float %mul, %1
  br i1 %cmp9, label %if.then, label %if.end15

if.then:                                          ; preds = %for.body6
  %2 = load float, ptr %pq.074, align 4
  store float %2, ptr %pr.075, align 4
  %arrayidx12 = getelementptr inbounds i8, ptr %pq.074, i64 4
  %3 = load float, ptr %arrayidx12, align 4
  %arrayidx13 = getelementptr inbounds i8, ptr %pr.075, i64 4
  store float %3, ptr %arrayidx13, align 4
  %inc = add nsw i32 %nr.273, 1
  %and = and i32 %inc, 8
  %tobool.not = icmp eq i32 %and, 0
  br i1 %tobool.not, label %if.then.if.end15_crit_edge, label %done

if.then.if.end15_crit_edge:                       ; preds = %if.then
  %add.ptr = getelementptr inbounds i8, ptr %pr.075, i64 8
  %.pre = load float, ptr %arrayidx, align 4
  %.pre89 = load float, ptr %arrayidx8, align 4
  %.pre90 = fmul float %.pre, %conv
  br label %if.end15

if.end15:                                         ; preds = %if.then.if.end15_crit_edge, %for.body6
  %mul21.pre-phi = phi float [ %.pre90, %if.then.if.end15_crit_edge ], [ %mul, %for.body6 ]
  %4 = phi float [ %.pre89, %if.then.if.end15_crit_edge ], [ %1, %for.body6 ]
  %5 = phi float [ %.pre, %if.then.if.end15_crit_edge ], [ %0, %for.body6 ]
  %nr.3 = phi i32 [ %inc, %if.then.if.end15_crit_edge ], [ %nr.273, %for.body6 ]
  %pr.1 = phi ptr [ %add.ptr, %if.then.if.end15_crit_edge ], [ %pr.075, %for.body6 ]
  %cmp16.not = icmp eq i32 %i.076, 1
  %add.ptr17 = getelementptr inbounds i8, ptr %pq.074, i64 8
  %cond = select i1 %cmp16.not, ptr %q.177, ptr %add.ptr17
  %cmp24 = fcmp olt float %mul21.pre-phi, %4
  %arrayidx28 = getelementptr inbounds float, ptr %cond, i64 %indvars.iv
  %6 = load float, ptr %arrayidx28, align 4
  %mul29 = fmul float %6, %conv
  %cmp32 = fcmp olt float %mul29, %4
  %xor63 = xor i1 %cmp24, %cmp32
  br i1 %xor63, label %if.then35, label %if.end72

if.then35:                                        ; preds = %if.end15
  %arrayidx37 = getelementptr inbounds float, ptr %pq.074, i64 %idxprom36
  %7 = load float, ptr %arrayidx37, align 4
  %arrayidx40 = getelementptr inbounds float, ptr %cond, i64 %idxprom36
  %8 = load float, ptr %arrayidx40, align 4
  %sub44 = fsub float %8, %7
  %sub49 = fsub float %6, %5
  %div = fdiv float %sub44, %sub49
  %neg = fneg float %5
  %9 = call float @llvm.fmuladd.f32(float %conv, float %4, float %neg)
  %10 = call float @llvm.fmuladd.f32(float %div, float %9, float %7)
  %arrayidx59 = getelementptr inbounds float, ptr %pr.1, i64 %idxprom36
  store float %10, ptr %arrayidx59, align 4
  %11 = load float, ptr %arrayidx8, align 4
  %mul63 = fmul float %11, %conv
  %arrayidx65 = getelementptr inbounds float, ptr %pr.1, i64 %indvars.iv
  store float %mul63, ptr %arrayidx65, align 4
  %add.ptr66 = getelementptr inbounds i8, ptr %pr.1, i64 8
  %inc67 = add nsw i32 %nr.3, 1
  %and68 = and i32 %inc67, 8
  %tobool69.not = icmp eq i32 %and68, 0
  br i1 %tobool69.not, label %if.end72, label %done

if.end72:                                         ; preds = %if.then35, %if.end15
  %nr.4 = phi i32 [ %inc67, %if.then35 ], [ %nr.3, %if.end15 ]
  %pr.2 = phi ptr [ %add.ptr66, %if.then35 ], [ %pr.1, %if.end15 ]
  %dec = add nsw i32 %i.076, -1
  %cmp5 = icmp sgt i32 %i.076, 1
  br i1 %cmp5, label %for.body6, label %for.end, !llvm.loop !30

for.end:                                          ; preds = %if.end72, %for.cond4.preheader
  %nr.2.lcssa = phi i32 [ 0, %for.cond4.preheader ], [ %nr.4, %if.end72 ]
  %cmp74 = icmp eq ptr %r.178, %ret
  %cond78 = select i1 %cmp74, ptr %buffer, ptr %ret
  %add = add nsw i32 %sign.079, 2
  %cmp2 = icmp slt i32 %sign.079, 0
  br i1 %cmp2, label %for.cond4.preheader, label %for.inc81, !llvm.loop !31

for.inc81:                                        ; preds = %for.end
  br i1 %cmp, label %for.cond1.preheader, label %done, !llvm.loop !32

done:                                             ; preds = %for.inc81, %if.then35, %if.then
  %nr.5 = phi i32 [ %inc67, %if.then35 ], [ %inc, %if.then ], [ %nr.2.lcssa, %for.inc81 ]
  %cmp84.not = icmp eq ptr %r.178, %ret
  br i1 %cmp84.not, label %if.end89, label %if.then85

if.then85:                                        ; preds = %done
  %mul86 = shl nsw i32 %nr.5, 1
  %conv87 = sext i32 %mul86 to i64
  %mul88 = shl nsw i64 %conv87, 2
  call void @llvm.memcpy.p0.p0.i64(ptr align 4 %ret, ptr align 4 %r.178, i64 %mul88, i1 false)
  br label %if.end89

if.end89:                                         ; preds = %if.then85, %done
  ret i32 %nr.5
}